target datalayout = "e-m:e-p270:32:32-p271:32:32-p272:64:64-i64:64-i128:128-f80:128-n8:16:32:64-S128"
target triple = "x86_64-pc-linux-gnu"

%"class.icu_77::CollationIterator::CEBuffer" = type { i32, %"class.icu_77::MaybeStackArray.0" }
%"class.icu_77::MaybeStackArray.0" = type { ptr, i32, i8, [40 x i64] }
%"class.icu_77::CollationIterator" = type <{ %"class.icu_77::UObject", ptr, ptr, %"class.icu_77::CollationIterator::CEBuffer", i32, [4 x i8], ptr, i32, i8, [3 x i8] }>
%"class.icu_77::UObject" = type { ptr }
%"class.icu_77::SkippedState" = type { [8 x i8], %"class.icu_77::UnicodeString", %"class.icu_77::UnicodeString", i32, i32, %"class.icu_77::UCharsTrie::State" }
%"class.icu_77::UnicodeString" = type { %"class.icu_77::Replaceable", %"union.icu_77::UnicodeString::StackBufferOrFields" }
%"class.icu_77::Replaceable" = type { %"class.icu_77::UObject" }
%"union.icu_77::UnicodeString::StackBufferOrFields" = type { %struct.anon.1, [32 x i8] }
%struct.anon.1 = type { i16, i32, i32, ptr }
%"class.icu_77::UCharsTrie::State" = type <{ ptr, ptr, i32, [4 x i8] }>

; Function Attrs: inlinehint mustprogress nounwind uwtable
define linkonce_odr noundef i32 @_ZNK6icu_7713UnicodeString14getShortLengthEv(ptr noundef nonnull align 8 dereferenceable(64) %0) #2 comdat align 2 {
  %2 = alloca ptr, align 8
  store ptr %0, ptr %2, align 8, !tbaa !139
  %3 = load ptr, ptr %2, align 8
  %4 = getelementptr inbounds nuw %"class.icu_77::UnicodeString", ptr %3, i32 0, i32 1
  %5 = getelementptr inbounds nuw %struct.anon.1, ptr %4, i32 0, i32 0
  %6 = load i16, ptr %5, align 8, !tbaa !62
  %7 = sext i16 %6 to i32
  %8 = ashr i32 %7, 5
  ret i32 %8
}

; Function Attrs: inlinehint mustprogress nounwind uwtable
define linkonce_odr noundef signext i8 @_ZNK6icu_7713UnicodeString14hasShortLengthEv(ptr noundef nonnull align 8 dereferenceable(64) %0) #2 comdat align 2 {
  %2 = alloca ptr, align 8
  store ptr %0, ptr %2, align 8, !tbaa !139
  %3 = load ptr, ptr %2, align 8
  %4 = getelementptr inbounds nuw %"class.icu_77::UnicodeString", ptr %3, i32 0, i32 1
  %5 = getelementptr inbounds nuw %struct.anon.1, ptr %4, i32 0, i32 0
  %6 = load i16, ptr %5, align 8, !tbaa !62
  %7 = sext i16 %6 to i32
  %8 = icmp sge i32 %7, 0
  %9 = zext i1 %8 to i8
  ret i8 %9
}

; Function Attrs: inlinehint mustprogress uwtable
define linkonce_odr noundef i32 @_ZNK6icu_7713UnicodeString6lengthEv(ptr noundef nonnull align 8 dereferenceable(64) %0) #3 comdat align 2 {
  %2 = alloca ptr, align 8
  store ptr %0, ptr %2, align 8, !tbaa !139
  %3 = load ptr, ptr %2, align 8
  %4 = call noundef signext i8 @_ZNK6icu_7713UnicodeString14hasShortLengthEv(ptr noundef nonnull align 8 dereferenceable(64) %3)
  %5 = icmp ne i8 %4, 0
  br i1 %5, label %6, label %8

6:                                                ; preds = %1
  %7 = call noundef i32 @_ZNK6icu_7713UnicodeString14getShortLengthEv(ptr noundef nonnull align 8 dereferenceable(64) %3)
  br label %12

8:                                                ; preds = %1
  %9 = getelementptr inbounds nuw %"class.icu_77::UnicodeString", ptr %3, i32 0, i32 1
  %10 = getelementptr inbounds nuw %struct.anon.1, ptr %9, i32 0, i32 1
  %11 = load i32, ptr %10, align 4, !tbaa !62
  br label %12

12:                                               ; preds = %8, %6
  %13 = phi i32 [ %7, %6 ], [ %11, %8 ]
  ret i32 %13
}

; Function Attrs: inlinehint mustprogress nounwind uwtable
define linkonce_odr noundef signext i8 @_ZNK6icu_7713UnicodeString7isEmptyEv(ptr noundef nonnull align 8 dereferenceable(64) %0) #2 comdat align 2 {
  %2 = alloca ptr, align 8
  store ptr %0, ptr %2, align 8, !tbaa !139
  %3 = load ptr, ptr %2, align 8
  %4 = getelementptr inbounds nuw %"class.icu_77::UnicodeString", ptr %3, i32 0, i32 1
  %5 = getelementptr inbounds nuw %struct.anon.1, ptr %4, i32 0, i32 0
  %6 = load i16, ptr %5, align 8, !tbaa !62
  %7 = sext i16 %6 to i32
  %8 = ashr i32 %7, 5
  %9 = icmp eq i32 %8, 0
  %10 = zext i1 %9 to i8
  ret i8 %10
}

; Function Attrs: mustprogress uwtable
define linkonce_odr noundef i32 @_ZN6icu_7712SkippedState21backwardNumCodePointsEi(ptr noundef nonnull align 8 dereferenceable(168) %0, i32 noundef %1) #1 comdat align 2 {
  %3 = alloca i32, align 4
  %4 = alloca ptr, align 8
  %5 = alloca i32, align 4
  %6 = alloca i32, align 4
  %7 = alloca i32, align 4
  %8 = alloca i32, align 4
  store ptr %0, ptr %4, align 8, !tbaa !56
  store i32 %1, ptr %5, align 4, !tbaa !14
  %9 = load ptr, ptr %4, align 8
  call void @llvm.lifetime.start.p0(i64 4, ptr %6) #11
  %10 = getelementptr inbounds nuw %"class.icu_77::SkippedState", ptr %9, i32 0, i32 1
  %11 = call noundef i32 @_ZNK6icu_7713UnicodeString6lengthEv(ptr noundef nonnull align 8 dereferenceable(64) %10)
  store i32 %11, ptr %6, align 4, !tbaa !14
  call void @llvm.lifetime.start.p0(i64 4, ptr %7) #11
  %12 = getelementptr inbounds nuw %"class.icu_77::SkippedState", ptr %9, i32 0, i32 3
  %13 = load i32, ptr %12, align 8, !tbaa !63
  %14 = load i32, ptr %6, align 4, !tbaa !14
  %15 = sub nsw i32 %13, %14
  store i32 %15, ptr %7, align 4, !tbaa !14
  %16 = load i32, ptr %7, align 4, !tbaa !14
  %17 = icmp sgt i32 %16, 0
  br i1 %17, label %18, label %37

18:                                               ; preds = %2
  %19 = load i32, ptr %7, align 4, !tbaa !14
  %20 = load i32, ptr %5, align 4, !tbaa !14
  %21 = icmp sge i32 %19, %20
  br i1 %21, label %22, label %28

22:                                               ; preds = %18
  %23 = load i32, ptr %5, align 4, !tbaa !14
  %24 = getelementptr inbounds nuw %"class.icu_77::SkippedState", ptr %9, i32 0, i32 3
  %25 = load i32, ptr %24, align 8, !tbaa !63
  %26 = sub nsw i32 %25, %23
  store i32 %26, ptr %24, align 8, !tbaa !63
  %27 = load i32, ptr %5, align 4, !tbaa !14
  store i32 %27, ptr %3, align 4
  store i32 1, ptr %8, align 4
  br label %45

28:                                               ; preds = %18
  %29 = getelementptr inbounds nuw %"class.icu_77::SkippedState", ptr %9, i32 0, i32 1
  %30 = load i32, ptr %6, align 4, !tbaa !14
  %31 = load i32, ptr %7, align 4, !tbaa !14
  %32 = load i32, ptr %5, align 4, !tbaa !14
  %33 = sub nsw i32 %31, %32
  %34 = call noundef i32 @_ZNK6icu_7713UnicodeString11moveIndex32Eii(ptr noundef nonnull align 8 dereferenceable(64) %29, i32 noundef %30, i32 noundef %33)
  %35 = getelementptr inbounds nuw %"class.icu_77::SkippedState", ptr %9, i32 0, i32 3
  store i32 %34, ptr %35, align 8, !tbaa !63
  %36 = load i32, ptr %7, align 4, !tbaa !14
  store i32 %36, ptr %3, align 4
  store i32 1, ptr %8, align 4
  br label %45

37:                                               ; preds = %2
  %38 = getelementptr inbounds nuw %"class.icu_77::SkippedState", ptr %9, i32 0, i32 1
  %39 = getelementptr inbounds nuw %"class.icu_77::SkippedState", ptr %9, i32 0, i32 3
  %40 = load i32, ptr %39, align 8, !tbaa !63
  %41 = load i32, ptr %5, align 4, !tbaa !14
  %42 = sub nsw i32 0, %41
  %43 = call noundef i32 @_ZNK6icu_7713UnicodeString11moveIndex32Eii(ptr noundef nonnull align 8 dereferenceable(64) %38, i32 noundef %40, i32 noundef %42)
  %44 = getelementptr inbounds nuw %"class.icu_77::SkippedState", ptr %9, i32 0, i32 3
  store i32 %43, ptr %44, align 8, !tbaa !63
  store i32 0, ptr %3, align 4
  store i32 1, ptr %8, align 4
  br label %45

45:                                               ; preds = %37, %28, %22
  call void @llvm.lifetime.end.p0(i64 4, ptr %7) #11
  call void @llvm.lifetime.end.p0(i64 4, ptr %6) #11
  %46 = load i32, ptr %3, align 4
  ret i32 %46
}

; Function Attrs: mustprogress uwtable
define linkonce_odr noundef signext i8 @_ZNK6icu_7712SkippedState7isEmptyEv(ptr noundef nonnull align 8 dereferenceable(168) %0) #1 comdat align 2 {
  %2 = alloca ptr, align 8
  store ptr %0, ptr %2, align 8, !tbaa !56
  %3 = load ptr, ptr %2, align 8
  %4 = getelementptr inbounds nuw %"class.icu_77::SkippedState", ptr %3, i32 0, i32 1
  %5 = call noundef signext i8 @_ZNK6icu_7713UnicodeString7isEmptyEv(ptr noundef nonnull align 8 dereferenceable(64) %4)
  ret i8 %5
}

; Function Attrs: mustprogress uwtable
define void @_ZN6icu_7717CollationIterator18backwardNumSkippedEiR10UErrorCode(ptr noundef nonnull align 8 dereferenceable(389) %0, i32 noundef %1, ptr noundef nonnull align 4 dereferenceable(4) %2) #1 align 2 {
  %4 = alloca ptr, align 8
  %5 = alloca i32, align 4
  %6 = alloca ptr, align 8
  store ptr %0, ptr %4, align 8, !tbaa !37
  store i32 %1, ptr %5, align 4, !tbaa !14
  store ptr %2, ptr %6, align 8, !tbaa !22
  %7 = load ptr, ptr %4, align 8
  %8 = getelementptr inbounds nuw %"class.icu_77::CollationIterator", ptr %7, i32 0, i32 6
  %9 = load ptr, ptr %8, align 8, !tbaa !49
  %10 = icmp ne ptr %9, null
  br i1 %10, label %11, label %21

11:                                               ; preds = %3
  %12 = getelementptr inbounds nuw %"class.icu_77::CollationIterator", ptr %7, i32 0, i32 6
  %13 = load ptr, ptr %12, align 8, !tbaa !49
  %14 = call noundef signext i8 @_ZNK6icu_7712SkippedState7isEmptyEv(ptr noundef nonnull align 8 dereferenceable(168) %13)
  %15 = icmp ne i8 %14, 0
  br i1 %15, label %21, label %16

16:                                               ; preds = %11
  %17 = getelementptr inbounds nuw %"class.icu_77::CollationIterator", ptr %7, i32 0, i32 6
  %18 = load ptr, ptr %17, align 8, !tbaa !49
  %19 = load i32, ptr %5, align 4, !tbaa !14
  %20 = call noundef i32 @_ZN6icu_7712SkippedState21backwardNumCodePointsEi(ptr noundef nonnull align 8 dereferenceable(168) %18, i32 noundef %19)
  store i32 %20, ptr %5, align 4, !tbaa !14
  br label %21

21:                                               ; preds = %16, %11, %3
  %22 = load i32, ptr %5, align 4, !tbaa !14
  %23 = load ptr, ptr %6, align 8, !tbaa !22
  %24 = load ptr, ptr %7, align 8, !tbaa !39
  %25 = getelementptr inbounds ptr, ptr %24, i64 13
  %26 = load ptr, ptr %25, align 8
  call void %26(ptr noundef nonnull align 8 dereferenceable(389) %7, i32 noundef %22, ptr noundef nonnull align 4 dereferenceable(4) %23)
  %27 = getelementptr inbounds nuw %"class.icu_77::CollationIterator", ptr %7, i32 0, i32 7
  %28 = load i32, ptr %27, align 8, !tbaa !50
  %29 = icmp sge i32 %28, 0
  br i1 %29, label %30, label %35

30:                                               ; preds = %21
  %31 = load i32, ptr %5, align 4, !tbaa !14
  %32 = getelementptr inbounds nuw %"class.icu_77::CollationIterator", ptr %7, i32 0, i32 7
  %33 = load i32, ptr %32, align 8, !tbaa !50
  %34 = add nsw i32 %33, %31
  store i32 %34, ptr %32, align 8, !tbaa !50
  br label %35

35:                                               ; preds = %30, %21
  ret void
}