; Function Attrs: mustprogress uwtable
define void @_ZN6icu_7717CollationIterator18backwardNumSkippedEiR10UErrorCode(ptr noundef nonnull align 8 dereferenceable(389) %0, i32 noundef %1, ptr noundef nonnull align 4 dereferenceable(4) %2) local_unnamed_addr #1 align 2 {
  %4 = getelementptr inbounds nuw i8, ptr %0, i64 376
  %5 = load ptr, ptr %4, align 8, !tbaa !34
  %.not = icmp eq ptr %5, null
  br i1 %.not, label %31, label %6

6:                                                ; preds = %3
  %7 = getelementptr inbounds nuw i8, ptr %5, i64 16
  %8 = load i16, ptr %7, align 8, !tbaa !43
  %9 = icmp ugt i16 %8, 31
  br i1 %9, label %10, label %31

10:                                               ; preds = %6
  %11 = getelementptr inbounds nuw i8, ptr %5, i64 8
  %12 = icmp slt i16 %8, 0
  %13 = ashr i16 %8, 5
  %14 = sext i16 %13 to i32
  %15 = getelementptr inbounds nuw i8, ptr %5, i64 20
  %16 = load i32, ptr %15, align 4
  %17 = select i1 %12, i32 %16, i32 %14
  %18 = getelementptr inbounds nuw i8, ptr %5, i64 136
  %19 = load i32, ptr %18, align 8, !tbaa !45
  %20 = sub nsw i32 %19, %17
  %21 = icmp sgt i32 %20, 0
  br i1 %21, label %22, label %28

22:                                               ; preds = %10
  %.not.i = icmp slt i32 %20, %1
  br i1 %.not.i, label %25, label %23

23:                                               ; preds = %22
  %24 = sub nsw i32 %19, %1
  br label %_ZN6icu_7712SkippedState21backwardNumCodePointsEi.exit

25:                                               ; preds = %22
  %26 = sub nsw i32 %20, %1
  %27 = tail call noundef i32 @_ZNK6icu_7713UnicodeString11moveIndex32Eii(ptr noundef nonnull align 8 dereferenceable(64) %11, i32 noundef %17, i32 noundef %26)
  br label %_ZN6icu_7712SkippedState21backwardNumCodePointsEi.exit

28:                                               ; preds = %10
  %29 = sub nsw i32 0, %1
  %30 = tail call noundef i32 @_ZNK6icu_7713UnicodeString11moveIndex32Eii(ptr noundef nonnull align 8 dereferenceable(64) %11, i32 noundef %19, i32 noundef %29)
  br label %_ZN6icu_7712SkippedState21backwardNumCodePointsEi.exit

_ZN6icu_7712SkippedState21backwardNumCodePointsEi.exit: ; preds = %23, %25, %28
  %.sink.i = phi i32 [ %30, %28 ], [ %27, %25 ], [ %24, %23 ]
  %.0.i = phi i32 [ 0, %28 ], [ %20, %25 ], [ %1, %23 ]
  store i32 %.sink.i, ptr %18, align 8, !tbaa !45
  br label %31

31:                                               ; preds = %_ZN6icu_7712SkippedState21backwardNumCodePointsEi.exit, %6, %3
  %.0 = phi i32 [ %1, %6 ], [ %.0.i, %_ZN6icu_7712SkippedState21backwardNumCodePointsEi.exit ], [ %1, %3 ]
  %32 = load ptr, ptr %0, align 8, !tbaa !24
  %33 = getelementptr inbounds nuw i8, ptr %32, i64 104
  %34 = load ptr, ptr %33, align 8
  tail call void %34(ptr noundef nonnull align 8 dereferenceable(389) %0, i32 noundef %.0, ptr noundef nonnull align 4 dereferenceable(4) %2)
  %35 = getelementptr inbounds nuw i8, ptr %0, i64 384
  %36 = load i32, ptr %35, align 8, !tbaa !35
  %37 = icmp sgt i32 %36, -1
  br i1 %37, label %38, label %40

38:                                               ; preds = %31
  %39 = add nsw i32 %36, %.0
  store i32 %39, ptr %35, align 8, !tbaa !35
  br label %40

40:                                               ; preds = %38, %31
  ret void
}